target datalayout = "e-m:e-p270:32:32-p271:32:32-p272:64:64-i64:64-i128:128-f80:128-n8:16:32:64-S128"
target triple = "x86_64-pc-linux-gnu"

%"class.llvm::SmallPtrSetImplBase.base" = type <{ ptr, ptr, i32, i32, i32 }>
%"struct.llvm::AnalysisKey" = type { [8 x i8] }
%"class.llvm::PreservedAnalyses" = type { %"class.llvm::SmallPtrSet.29", %"class.llvm::SmallPtrSet.32" }
%"class.llvm::SmallPtrSet.29" = type { %"class.llvm::SmallPtrSetImpl.base.31", [2 x ptr] }
%"class.llvm::SmallPtrSetImpl.base.31" = type { %"class.llvm::SmallPtrSetImplBase.base" }
%"class.llvm::SmallPtrSet.32" = type { %"class.llvm::SmallPtrSetImpl.base.34", [2 x ptr] }
%"class.llvm::SmallPtrSetImpl.base.34" = type { %"class.llvm::SmallPtrSetImplBase.base" }
%"class.llvm::SmallPtrSetImplBase" = type <{ ptr, ptr, i32, i32, i32, [4 x i8] }>

@_ZN4llvm17LazyValueAnalysis3KeyE = external global %"struct.llvm::AnalysisKey", align 8
@_ZN4llvm21DominatorTreeAnalysis3KeyE = external global %"struct.llvm::AnalysisKey", align 8

; Function Attrs: mustprogress nounwind uwtable
define linkonce_odr hidden noundef zeroext i1 @_ZNK4llvm19SmallPtrSetImplBase7isSmallEv(ptr noundef nonnull align 8 dereferenceable(28) %0) #1 comdat align 2 {
  %2 = alloca ptr, align 8
  store ptr %0, ptr %2, align 8
  %3 = load ptr, ptr %2, align 8
  %4 = getelementptr inbounds nuw %"class.llvm::SmallPtrSetImplBase", ptr %3, i32 0, i32 1
  %5 = load ptr, ptr %4, align 8
  %6 = getelementptr inbounds nuw %"class.llvm::SmallPtrSetImplBase", ptr %3, i32 0, i32 0
  %7 = load ptr, ptr %6, align 8
  %8 = icmp eq ptr %5, %7
  ret i1 %8
}

; Function Attrs: mustprogress nounwind uwtable
define linkonce_odr hidden void @_ZN4llvm19SmallPtrSetImplBaseD2Ev(ptr noundef nonnull align 8 dereferenceable(28) %0) unnamed_addr #1 comdat align 2 {
  %2 = alloca ptr, align 8
  store ptr %0, ptr %2, align 8
  %3 = load ptr, ptr %2, align 8
  %4 = call noundef zeroext i1 @_ZNK4llvm19SmallPtrSetImplBase7isSmallEv(ptr noundef nonnull align 8 dereferenceable(28) %3)
  br i1 %4, label %8, label %5

5:                                                ; preds = %1
  %6 = getelementptr inbounds nuw %"class.llvm::SmallPtrSetImplBase", ptr %3, i32 0, i32 1
  %7 = load ptr, ptr %6, align 8
  call void @free(ptr noundef %7) #2
  br label %8

8:                                                ; preds = %5, %1
  ret void
}

; Function Attrs: mustprogress nounwind uwtable
define linkonce_odr hidden void @_ZN4llvm19SmallPtrSetImplBaseC2EPPKvj(ptr noundef nonnull align 8 dereferenceable(28) %0, ptr noundef %1, i32 noundef %2) unnamed_addr #1 comdat align 2 {
  %4 = alloca ptr, align 8
  %5 = alloca ptr, align 8
  %6 = alloca i32, align 4
  store ptr %0, ptr %4, align 8
  store ptr %1, ptr %5, align 8
  store i32 %2, ptr %6, align 4
  %7 = load ptr, ptr %4, align 8
  %8 = getelementptr inbounds nuw %"class.llvm::SmallPtrSetImplBase", ptr %7, i32 0, i32 0
  %9 = load ptr, ptr %5, align 8
  store ptr %9, ptr %8, align 8
  %10 = getelementptr inbounds nuw %"class.llvm::SmallPtrSetImplBase", ptr %7, i32 0, i32 1
  %11 = load ptr, ptr %5, align 8
  store ptr %11, ptr %10, align 8
  %12 = getelementptr inbounds nuw %"class.llvm::SmallPtrSetImplBase", ptr %7, i32 0, i32 2
  %13 = load i32, ptr %6, align 4
  store i32 %13, ptr %12, align 8
  %14 = getelementptr inbounds nuw %"class.llvm::SmallPtrSetImplBase", ptr %7, i32 0, i32 3
  store i32 0, ptr %14, align 4
  %15 = getelementptr inbounds nuw %"class.llvm::SmallPtrSetImplBase", ptr %7, i32 0, i32 4
  store i32 0, ptr %15, align 8
  ret void
}

; Function Attrs: mustprogress nounwind uwtable
define linkonce_odr hidden void @_ZN4llvm15SmallPtrSetImplIPvED2Ev(ptr noundef nonnull align 8 dereferenceable(28) %0) unnamed_addr #1 comdat align 2 {
  %2 = alloca ptr, align 8
  store ptr %0, ptr %2, align 8
  %3 = load ptr, ptr %2, align 8
  call void @_ZN4llvm19SmallPtrSetImplBaseD2Ev(ptr noundef nonnull align 8 dereferenceable(28) %3) #2
  ret void
}

; Function Attrs: mustprogress nounwind uwtable
define linkonce_odr hidden void @_ZN4llvm15SmallPtrSetImplIPNS_11AnalysisKeyEED2Ev(ptr noundef nonnull align 8 dereferenceable(28) %0) unnamed_addr #1 comdat align 2 {
  %2 = alloca ptr, align 8
  store ptr %0, ptr %2, align 8
  %3 = load ptr, ptr %2, align 8
  call void @_ZN4llvm19SmallPtrSetImplBaseD2Ev(ptr noundef nonnull align 8 dereferenceable(28) %3) #2
  ret void
}

; Function Attrs: mustprogress nounwind uwtable
define linkonce_odr hidden void @_ZN4llvm15SmallPtrSetImplIPNS_11AnalysisKeyEECI2NS_19SmallPtrSetImplBaseEEPPKvj(ptr noundef nonnull align 8 dereferenceable(28) %0, ptr noundef %1, i32 noundef %2) unnamed_addr #1 comdat align 2 {
  %4 = alloca ptr, align 8
  %5 = alloca ptr, align 8
  %6 = alloca i32, align 4
  store ptr %0, ptr %4, align 8
  store ptr %1, ptr %5, align 8
  store i32 %2, ptr %6, align 4
  %7 = load ptr, ptr %4, align 8
  %8 = load ptr, ptr %5, align 8
  %9 = load i32, ptr %6, align 4
  call void @_ZN4llvm19SmallPtrSetImplBaseC2EPPKvj(ptr noundef nonnull align 8 dereferenceable(28) %7, ptr noundef %8, i32 noundef %9)
  ret void
}

; Function Attrs: mustprogress nounwind uwtable
define linkonce_odr hidden void @_ZN4llvm15SmallPtrSetImplIPvECI2NS_19SmallPtrSetImplBaseEEPPKvj(ptr noundef nonnull align 8 dereferenceable(28) %0, ptr noundef %1, i32 noundef %2) unnamed_addr #1 comdat align 2 {
  %4 = alloca ptr, align 8
  %5 = alloca ptr, align 8
  %6 = alloca i32, align 4
  store ptr %0, ptr %4, align 8
  store ptr %1, ptr %5, align 8
  store i32 %2, ptr %6, align 4
  %7 = load ptr, ptr %4, align 8
  %8 = load ptr, ptr %5, align 8
  %9 = load i32, ptr %6, align 4
  call void @_ZN4llvm19SmallPtrSetImplBaseC2EPPKvj(ptr noundef nonnull align 8 dereferenceable(28) %7, ptr noundef %8, i32 noundef %9)
  ret void
}

; Function Attrs: mustprogress nounwind uwtable
define linkonce_odr hidden void @_ZN4llvm11SmallPtrSetIPvLj2EED2Ev(ptr noundef nonnull align 8 dereferenceable(48) %0) unnamed_addr #1 comdat align 2 {
  %2 = alloca ptr, align 8
  store ptr %0, ptr %2, align 8
  %3 = load ptr, ptr %2, align 8
  call void @_ZN4llvm15SmallPtrSetImplIPvED2Ev(ptr noundef nonnull align 8 dereferenceable(28) %3) #2
  ret void
}

; Function Attrs: mustprogress nounwind uwtable
define linkonce_odr hidden void @_ZN4llvm11SmallPtrSetIPNS_11AnalysisKeyELj2EED2Ev(ptr noundef nonnull align 8 dereferenceable(48) %0) unnamed_addr #1 comdat align 2 {
  %2 = alloca ptr, align 8
  store ptr %0, ptr %2, align 8
  %3 = load ptr, ptr %2, align 8
  call void @_ZN4llvm15SmallPtrSetImplIPNS_11AnalysisKeyEED2Ev(ptr noundef nonnull align 8 dereferenceable(28) %3) #2
  ret void
}

; Function Attrs: mustprogress nounwind uwtable
define linkonce_odr hidden noundef ptr @_ZN4llvm17AnalysisInfoMixinINS_21DominatorTreeAnalysisEE2IDEv() #1 comdat align 2 {
  ret ptr @_ZN4llvm21DominatorTreeAnalysis3KeyE
}

; Function Attrs: mustprogress nounwind uwtable
define linkonce_odr hidden noundef ptr @_ZN4llvm17AnalysisInfoMixinINS_17LazyValueAnalysisEE2IDEv() #1 comdat align 2 {
  ret ptr @_ZN4llvm17LazyValueAnalysis3KeyE
}

; Function Attrs: mustprogress nounwind uwtable
define linkonce_odr hidden void @_ZN4llvm11SmallPtrSetIPNS_11AnalysisKeyELj2EEC2Ev(ptr noundef nonnull align 8 dereferenceable(48) %0) unnamed_addr #1 comdat align 2 {
  %2 = alloca ptr, align 8
  store ptr %0, ptr %2, align 8
  %3 = load ptr, ptr %2, align 8
  %4 = getelementptr inbounds nuw %"class.llvm::SmallPtrSet.32", ptr %3, i32 0, i32 1
  %5 = getelementptr inbounds [2 x ptr], ptr %4, i64 0, i64 0
  call void @_ZN4llvm15SmallPtrSetImplIPNS_11AnalysisKeyEECI2NS_19SmallPtrSetImplBaseEEPPKvj(ptr noundef nonnull align 8 dereferenceable(28) %3, ptr noundef %5, i32 noundef 2)
  ret void
}

; Function Attrs: mustprogress nounwind uwtable
define linkonce_odr hidden void @_ZN4llvm11SmallPtrSetIPvLj2EEC2Ev(ptr noundef nonnull align 8 dereferenceable(48) %0) unnamed_addr #1 comdat align 2 {
  %2 = alloca ptr, align 8
  store ptr %0, ptr %2, align 8
  %3 = load ptr, ptr %2, align 8
  %4 = getelementptr inbounds nuw %"class.llvm::SmallPtrSet.29", ptr %3, i32 0, i32 1
  %5 = getelementptr inbounds [2 x ptr], ptr %4, i64 0, i64 0
  call void @_ZN4llvm15SmallPtrSetImplIPvECI2NS_19SmallPtrSetImplBaseEEPPKvj(ptr noundef nonnull align 8 dereferenceable(28) %3, ptr noundef %5, i32 noundef 2)
  ret void
}

; Function Attrs: mustprogress nounwind uwtable
define linkonce_odr hidden void @_ZN4llvm17PreservedAnalysesD2Ev(ptr noundef nonnull align 8 dereferenceable(96) %0) unnamed_addr #1 comdat align 2 {
  %2 = alloca ptr, align 8
  store ptr %0, ptr %2, align 8
  %3 = load ptr, ptr %2, align 8
  %4 = getelementptr inbounds nuw %"class.llvm::PreservedAnalyses", ptr %3, i32 0, i32 1
  call void @_ZN4llvm11SmallPtrSetIPNS_11AnalysisKeyELj2EED2Ev(ptr noundef nonnull align 8 dereferenceable(48) %4) #2
  %5 = getelementptr inbounds nuw %"class.llvm::PreservedAnalyses", ptr %3, i32 0, i32 0
  call void @_ZN4llvm11SmallPtrSetIPvLj2EED2Ev(ptr noundef nonnull align 8 dereferenceable(48) %5) #2
  ret void
}

; Function Attrs: mustprogress nounwind uwtable
define linkonce_odr hidden void @_ZN4llvm17PreservedAnalyses8preserveINS_21DominatorTreeAnalysisEEEvv(ptr noundef nonnull align 8 dereferenceable(96) %0) #1 comdat align 2 {
  %2 = alloca ptr, align 8
  store ptr %0, ptr %2, align 8
  %3 = load ptr, ptr %2, align 8
  %4 = call noundef ptr @_ZN4llvm17AnalysisInfoMixinINS_21DominatorTreeAnalysisEE2IDEv()
  call void @_ZN4llvm17PreservedAnalyses8preserveEPNS_11AnalysisKeyE(ptr noundef nonnull align 8 dereferenceable(96) %3, ptr noundef %4)
  ret void
}

; Function Attrs: mustprogress nounwind uwtable
define linkonce_odr hidden void @_ZN4llvm17PreservedAnalyses8preserveINS_17LazyValueAnalysisEEEvv(ptr noundef nonnull align 8 dereferenceable(96) %0) #1 comdat align 2 {
  %2 = alloca ptr, align 8
  store ptr %0, ptr %2, align 8
  %3 = load ptr, ptr %2, align 8
  %4 = call noundef ptr @_ZN4llvm17AnalysisInfoMixinINS_17LazyValueAnalysisEE2IDEv()
  call void @_ZN4llvm17PreservedAnalyses8preserveEPNS_11AnalysisKeyE(ptr noundef nonnull align 8 dereferenceable(96) %3, ptr noundef %4)
  ret void
}

; Function Attrs: mustprogress nounwind uwtable
define linkonce_odr hidden void @_ZN4llvm17PreservedAnalysesC2Ev(ptr noundef nonnull align 8 dereferenceable(96) %0) unnamed_addr #1 comdat align 2 {
  %2 = alloca ptr, align 8
  store ptr %0, ptr %2, align 8
  %3 = load ptr, ptr %2, align 8
  %4 = getelementptr inbounds nuw %"class.llvm::PreservedAnalyses", ptr %3, i32 0, i32 0
  call void @_ZN4llvm11SmallPtrSetIPvLj2EEC2Ev(ptr noundef nonnull align 8 dereferenceable(48) %4)
  %5 = getelementptr inbounds nuw %"class.llvm::PreservedAnalyses", ptr %3, i32 0, i32 1
  call void @_ZN4llvm11SmallPtrSetIPNS_11AnalysisKeyELj2EEC2Ev(ptr noundef nonnull align 8 dereferenceable(48) %5)
  ret void
}

; Function Attrs: mustprogress nounwind uwtable
define dso_local void @_ZNK4llvm17JumpThreadingPass20getPreservedAnalysisEv(ptr dead_on_unwind noalias writable sret(%"class.llvm::PreservedAnalyses") align 8 %0, ptr noundef nonnull align 8 dereferenceable(296) %1) #1 align 2 {
  %3 = alloca ptr, align 8
  %4 = alloca ptr, align 8
  %5 = alloca i1, align 1
  store ptr %0, ptr %3, align 8
  store ptr %1, ptr %4, align 8
  store i1 false, ptr %5, align 1
  call void @_ZN4llvm17PreservedAnalysesC2Ev(ptr noundef nonnull align 8 dereferenceable(96) %0)
  call void @_ZN4llvm17PreservedAnalyses8preserveINS_17LazyValueAnalysisEEEvv(ptr noundef nonnull align 8 dereferenceable(96) %0)
  call void @_ZN4llvm17PreservedAnalyses8preserveINS_21DominatorTreeAnalysisEEEvv(ptr noundef nonnull align 8 dereferenceable(96) %0)
  store i1 true, ptr %5, align 1
  %6 = load i1, ptr %5, align 1
  br i1 %6, label %8, label %7

7:                                                ; preds = %2
  call void @_ZN4llvm17PreservedAnalysesD2Ev(ptr noundef nonnull align 8 dereferenceable(96) %0) #2
  br label %8

8:                                                ; preds = %7, %2
  ret void
}