; Function Attrs: mustprogress nounwind uwtable
define dso_local void @_ZNK4llvm17JumpThreadingPass20getPreservedAnalysisEv(ptr dead_on_unwind noalias nonnull writable sret(%"class.llvm::PreservedAnalyses") align 8 %0, ptr nocapture noundef nonnull readnone align 8 dereferenceable(296) %1) local_unnamed_addr #0 align 2 {
  %3 = getelementptr inbounds nuw i8, ptr %0, i64 32
  store ptr %3, ptr %0, align 8
  %4 = getelementptr inbounds nuw i8, ptr %0, i64 8
  store ptr %3, ptr %4, align 8
  %5 = getelementptr inbounds nuw i8, ptr %0, i64 16
  store i32 2, ptr %5, align 8
  %6 = getelementptr inbounds nuw i8, ptr %0, i64 20
  store i32 0, ptr %6, align 4
  %7 = getelementptr inbounds nuw i8, ptr %0, i64 24
  store i32 0, ptr %7, align 8
  %8 = getelementptr inbounds nuw i8, ptr %0, i64 48
  %9 = getelementptr inbounds i8, ptr %0, i64 80
  store ptr %9, ptr %8, align 8
  %10 = getelementptr inbounds i8, ptr %0, i64 56
  store ptr %9, ptr %10, align 8
  %11 = getelementptr inbounds i8, ptr %0, i64 64
  store i32 2, ptr %11, align 8
  %12 = getelementptr inbounds i8, ptr %0, i64 68
  store i32 0, ptr %12, align 4
  %13 = getelementptr inbounds i8, ptr %0, i64 72
  store i32 0, ptr %13, align 8
  tail call void @_ZN4llvm17PreservedAnalyses8preserveEPNS_11AnalysisKeyE(ptr noundef nonnull align 8 dereferenceable(96) %0, ptr noundef nonnull @_ZN4llvm17LazyValueAnalysis3KeyE)
  tail call void @_ZN4llvm17PreservedAnalyses8preserveEPNS_11AnalysisKeyE(ptr noundef nonnull align 8 dereferenceable(96) %0, ptr noundef nonnull @_ZN4llvm21DominatorTreeAnalysis3KeyE)
  ret void
}